target datalayout = "e-m:e-p270:32:32-p271:32:32-p272:64:64-i64:64-i128:128-f80:128-n8:16:32:64-S128"
target triple = "x86_64-pc-linux-gnu"

%struct.LogicalRepCtxStruct = type { i32, i32, i64, [0 x %struct.LogicalRepWorker] }
%struct.LogicalRepWorker = type { i32, i64, i8, i16, ptr, i32, i32, i32, i32, i8, i64, i8, ptr, i32, i8, i64, i64, i64, i64, i64 }
%union.LWLockPadded = type { %struct.LWLock, [112 x i8] }
%struct.LWLock = type { i16, %struct.pg_atomic_uint32, %struct.proclist_head }
%struct.pg_atomic_uint32 = type { i32 }
%struct.proclist_head = type { i32, i32 }

@MyLogicalRepWorker = dso_local global ptr null, align 8
@LogicalRepCtx = internal global ptr null, align 8
@MainLWLockArray = external global ptr, align 8
@.str.1 = private unnamed_addr constant [11 x i8] c"launcher.c\00", align 1
@.str.20 = private unnamed_addr constant [59 x i8] c"logical replication worker slot %d is empty, cannot attach\00", align 1
@__func__.logicalrep_worker_attach = private unnamed_addr constant [25 x i8] c"logicalrep_worker_attach\00", align 1
@.str.21 = private unnamed_addr constant [84 x i8] c"logical replication worker slot %d is already used by another worker, cannot attach\00", align 1
@MyProc = external global ptr, align 8

; Function Attrs: nounwind uwtable
define dso_local void @logicalrep_worker_attach(i32 noundef %0) #0 {
  %2 = alloca i32, align 4
  store i32 %0, ptr %2, align 4
  %3 = load ptr, ptr @MainLWLockArray, align 8
  %4 = getelementptr inbounds %union.LWLockPadded, ptr %3, i64 43
  %5 = call zeroext i1 @LWLockAcquire(ptr noundef %4, i32 noundef 0)
  %6 = load ptr, ptr @LogicalRepCtx, align 8
  %7 = getelementptr inbounds nuw %struct.LogicalRepCtxStruct, ptr %6, i32 0, i32 3
  %8 = load i32, ptr %2, align 4
  %9 = sext i32 %8 to i64
  %10 = getelementptr inbounds [0 x %struct.LogicalRepWorker], ptr %7, i64 0, i64 %9
  store ptr %10, ptr @MyLogicalRepWorker, align 8
  %11 = load ptr, ptr @MyLogicalRepWorker, align 8
  %12 = getelementptr inbounds nuw %struct.LogicalRepWorker, ptr %11, i32 0, i32 2
  %13 = load i8, ptr %12, align 8, !range !4, !noundef !5
  %14 = trunc i8 %13 to i1
  br i1 %14, label %29, label %15

15:                                               ; preds = %1
  %16 = load ptr, ptr @MainLWLockArray, align 8
  %17 = getelementptr inbounds %union.LWLockPadded, ptr %16, i64 43
  call void @LWLockRelease(ptr noundef %17)
  br label %18

18:                                               ; preds = %15
  br i1 true, label %19, label %21

19:                                               ; preds = %18
  %20 = call zeroext i1 @errstart_cold(i32 noundef 21, ptr noundef null) #10
  br i1 %20, label %23, label %27

21:                                               ; preds = %18
  %22 = call zeroext i1 @errstart(i32 noundef 21, ptr noundef null)
  br i1 %22, label %23, label %27

23:                                               ; preds = %21, %19
  %24 = call i32 @errcode(i32 noundef 325)
  %25 = load i32, ptr %2, align 4
  %26 = call i32 (ptr, ...) @errmsg(ptr noundef @.str.20, i32 noundef %25)
  call void @errfinish(ptr noundef @.str.1, i32 noundef 718, ptr noundef @__func__.logicalrep_worker_attach)
  br label %27

27:                                               ; preds = %23, %21, %19
  unreachable

28:                                               ; No predecessors!
  br label %29

29:                                               ; preds = %28, %1
  %30 = load ptr, ptr @MyLogicalRepWorker, align 8
  %31 = getelementptr inbounds nuw %struct.LogicalRepWorker, ptr %30, i32 0, i32 4
  %32 = load ptr, ptr %31, align 8
  %33 = icmp ne ptr %32, null
  br i1 %33, label %34, label %48

34:                                               ; preds = %29
  %35 = load ptr, ptr @MainLWLockArray, align 8
  %36 = getelementptr inbounds %union.LWLockPadded, ptr %35, i64 43
  call void @LWLockRelease(ptr noundef %36)
  br label %37

37:                                               ; preds = %34
  br i1 true, label %38, label %40

38:                                               ; preds = %37
  %39 = call zeroext i1 @errstart_cold(i32 noundef 21, ptr noundef null) #10
  br i1 %39, label %42, label %46

40:                                               ; preds = %37
  %41 = call zeroext i1 @errstart(i32 noundef 21, ptr noundef null)
  br i1 %41, label %42, label %46

42:                                               ; preds = %40, %38
  %43 = call i32 @errcode(i32 noundef 325)
  %44 = load i32, ptr %2, align 4
  %45 = call i32 (ptr, ...) @errmsg(ptr noundef @.str.21, i32 noundef %44)
  call void @errfinish(ptr noundef @.str.1, i32 noundef 727, ptr noundef @__func__.logicalrep_worker_attach)
  br label %46

46:                                               ; preds = %42, %40, %38
  unreachable

47:                                               ; No predecessors!
  br label %48

48:                                               ; preds = %47, %29
  %49 = load ptr, ptr @MyProc, align 8
  %50 = load ptr, ptr @MyLogicalRepWorker, align 8
  %51 = getelementptr inbounds nuw %struct.LogicalRepWorker, ptr %50, i32 0, i32 4
  store ptr %49, ptr %51, align 8
  call void @before_shmem_exit(ptr noundef @logicalrep_worker_onexit, i64 noundef 0)
  %52 = load ptr, ptr @MainLWLockArray, align 8
  %53 = getelementptr inbounds %union.LWLockPadded, ptr %52, i64 43
  call void @LWLockRelease(ptr noundef %53)
  ret void
}