; Function Attrs: nounwind uwtable
define dso_local void @logicalrep_worker_attach(i32 noundef %0) local_unnamed_addr #2 {
  %2 = load ptr, ptr @MainLWLockArray, align 8
  %3 = getelementptr inbounds nuw i8, ptr %2, i64 5504
  %4 = tail call zeroext i1 @LWLockAcquire(ptr noundef nonnull %3, i32 noundef 0) #13
  %5 = load ptr, ptr @LogicalRepCtx, align 8
  %6 = getelementptr inbounds nuw i8, ptr %5, i64 16
  %7 = sext i32 %0 to i64
  %8 = getelementptr inbounds [0 x %struct.LogicalRepWorker], ptr %6, i64 0, i64 %7
  store ptr %8, ptr @MyLogicalRepWorker, align 8
  %9 = getelementptr inbounds nuw i8, ptr %8, i64 16
  %10 = load i8, ptr %9, align 8, !range !4, !noundef !5
  %11 = trunc nuw i8 %10 to i1
  br i1 %11, label %18, label %12

12:                                               ; preds = %1
  %13 = load ptr, ptr @MainLWLockArray, align 8
  %14 = getelementptr inbounds nuw i8, ptr %13, i64 5504
  tail call void @LWLockRelease(ptr noundef nonnull %14) #13
  %15 = tail call zeroext i1 @errstart_cold(i32 noundef 21, ptr noundef null) #14
  tail call void @llvm.assume(i1 %15)
  %16 = tail call i32 @errcode(i32 noundef 325) #13
  %17 = tail call i32 (ptr, ...) @errmsg(ptr noundef nonnull @.str.20, i32 noundef %0) #13
  tail call void @errfinish(ptr noundef nonnull @.str.1, i32 noundef 718, ptr noundef nonnull @__func__.logicalrep_worker_attach) #13
  unreachable

18:                                               ; preds = %1
  %19 = getelementptr inbounds nuw i8, ptr %8, i64 24
  %20 = load ptr, ptr %19, align 8
  %.not = icmp eq ptr %20, null
  br i1 %.not, label %27, label %21

21:                                               ; preds = %18
  %22 = load ptr, ptr @MainLWLockArray, align 8
  %23 = getelementptr inbounds nuw i8, ptr %22, i64 5504
  tail call void @LWLockRelease(ptr noundef nonnull %23) #13
  %24 = tail call zeroext i1 @errstart_cold(i32 noundef 21, ptr noundef null) #14
  tail call void @llvm.assume(i1 %24)
  %25 = tail call i32 @errcode(i32 noundef 325) #13
  %26 = tail call i32 (ptr, ...) @errmsg(ptr noundef nonnull @.str.21, i32 noundef %0) #13
  tail call void @errfinish(ptr noundef nonnull @.str.1, i32 noundef 727, ptr noundef nonnull @__func__.logicalrep_worker_attach) #13
  unreachable

27:                                               ; preds = %18
  %28 = load ptr, ptr @MyProc, align 8
  store ptr %28, ptr %19, align 8
  tail call void @before_shmem_exit(ptr noundef nonnull @logicalrep_worker_onexit, i64 noundef 0) #13
  %29 = load ptr, ptr @MainLWLockArray, align 8
  %30 = getelementptr inbounds nuw i8, ptr %29, i64 5504
  tail call void @LWLockRelease(ptr noundef nonnull %30) #13
  ret void
}